(dp0
S'Omri'
p1
(lp2
S'From: Guy\nTo: Omri\nTitle: sfsfsf\nContent: hello\n'
p3
aS'From: Guy\nTo: Omri\nTitle: hello\nContent: adsgsdfgsdgf\n'
p4
aS'From: Guy\nTo: Omri\nTitle: adasd\nContent: hi\n'
p5
asS'mintz'
p6
(lp7
S'From: sahar\nTo: mintz\nTitle: boom! bitch\nContent: well, ya\n'
p8
as.